target datalayout = "e-m:e-p270:32:32-p271:32:32-p272:64:64-i64:64-i128:128-f80:128-n8:16:32:64-S128"
target triple = "x86_64-pc-linux-gnu"

%struct.redisServer = type { i32, i64, ptr, ptr, ptr, i32, i32, i32, i32, i32, ptr, ptr, ptr, ptr, ptr, i32, i32, i32, i32, i64, i32, i32, i32, i32, ptr, i32, i32, [41 x i8], i32, i64, i32, i32, i32, ptr, ptr, i32, i32, i64, ptr, ptr, ptr, ptr, [2 x i32], i32, i32, i32, i32, i32, i32, [16 x ptr], i32, ptr, ptr, i32, [8 x %struct.connListener], i32, %struct.connListener, ptr, ptr, ptr, ptr, ptr, ptr, ptr, ptr, ptr, ptr, i32, ptr, i32, ptr, [3 x %struct.pause_event], [256 x i8], ptr, i64, i32, i32, [128 x i32], i32, i32, i64, i32, i32, i32, i32, i32, i64, i64, i64, i64, i64, i64, i64, i64, i64, i64, double, i64, i64, i64, i64, i64, i64, i64, i64, i64, i64, i64, i64, i64, i64, i64, i64, i64, i64, i64, i64, i64, double, i64, i64, i64, i64, i64, ptr, i64, i64, i64, %struct.malloc_stats, i64, i64, i64, i64, i64, i64, i64, i64, i64, i64, i64, i64, double, [4 x i64], i64, i64, i64, i64, [128 x i64], [128 x i64], i64, i64, [7 x %struct.anon], i64, i64, i64, i64, i64, i64, [4 x %struct.durationStats], i32, i32, i32, i32, i32, i32, i32, i32, i32, i32, i32, i32, i64, i32, i32, i32, i32, i64, i64, i32, i32, i32, i32, i32, ptr, [3 x %struct.clientBufferLimitsConfig], i32, i32, i32, ptr, i32, i32, i32, i32, i32, i32, ptr, ptr, i32, i32, i64, i64, i64, i64, i64, i32, i32, ptr, i32, i32, i64, i64, i64, i64, i64, i32, i32, i64, i32, i32, i32, i32, i32, i32, i32, i32, ptr, i32, i64, i64, i64, i64, i32, ptr, i32, ptr, i32, i32, i32, i64, i64, i64, i64, i32, i32, i32, i32, i32, i32, ptr, i32, i32, ptr, i32, i32, i32, [2 x i32], i32, %struct.redisOpArray, i32, ptr, i32, ptr, i32, i32, i32, i32, i32, i32, i32, [41 x i8], [41 x i8], i64, i64, i64, i64, i32, i32, ptr, i64, i64, %struct.replDataBuf, i64, i64, i32, i32, i32, i32, i32, i32, i32, i32, i32, i64, ptr, i64, ptr, ptr, ptr, i32, i32, ptr, ptr, i32, i32, i32, i64, i64, i64, i64, ptr, ptr, i32, ptr, i64, i32, i32, i32, i64, i32, i32, i32, i32, ptr, i32, i32, [41 x i8], i64, i32, ptr, i32, i32, i64, i64, i32, i32, i32, i32, i32, i64, [3 x i32], i32, i32, i32, [10 x i32], ptr, ptr, i32, i64, ptr, ptr, i32, i32, i32, i32, i64, i64, i64, i64, i64, i64, i64, i64, i64, i64, i32, i32, i64, i64, i32, i64, i64, i64, i64, i64, ptr, ptr, i32, ptr, i32, i32, i32, i32, i64, i64, ptr, ptr, i32, i32, i32, i32, i32, ptr, ptr, ptr, i32, i32, i32, i32, i32, i32, i32, i64, i32, i32, i64, i32, i32, i32, i32, i32, i32, i32, i64, ptr, ptr, i64, ptr, i32, %struct.aclInfo, i32, i64, i32, i32, i32, %struct.redisTLSContextConfig, ptr, ptr, ptr, ptr, ptr, i64, i32, ptr, i32, i32, i32, i64, i32, ptr }
%struct.connListener = type { [16 x i32], i32, ptr, i32, i32, ptr, ptr }
%struct.pause_event = type { i32, i64 }
%struct.malloc_stats = type { i64, i64, i64, i64, i64, i64, i64, i64, i64, i64, i64 }
%struct.anon = type { i64, i64, [16 x i64], i32 }
%struct.durationStats = type { i64, i64, i64 }
%struct.clientBufferLimitsConfig = type { i64, i64, i64 }
%struct.redisOpArray = type { ptr, i32, i32 }
%struct.replDataBuf = type { ptr, i64, i64, i64, i64 }
%struct.aclInfo = type { i64, i64, i64, i64 }
%struct.redisTLSContextConfig = type { ptr, ptr, ptr, ptr, ptr, ptr, ptr, ptr, ptr, ptr, ptr, ptr, i32, i32, i32, i32 }
%struct._clusterNode = type { i64, [40 x i8], [40 x i8], i32, i64, [2048 x i8], ptr, i32, i32, i32, ptr, ptr, i64, i64, i64, i64, i64, i64, i64, i64, i64, [46 x i8], ptr, ptr, i32, i32, i32, ptr, ptr, ptr }
%struct.clusterState = type { ptr, i64, i32, i32, ptr, ptr, ptr, [16384 x ptr], [16384 x ptr], [16384 x ptr], [40 x i8], i64, i32, i32, i32, i64, i32, i64, ptr, i64, i32, i64, i32, [11 x i64], [11 x i64], i64, i64, [2048 x i8] }

@myself = dso_local global ptr null, align 8
@server = external global %struct.redisServer, align 8
@.str.22 = private unnamed_addr constant [5 x i8] c"fail\00", align 1
@clusterUpdateState.among_minority_time = internal global i64 0, align 8
@clusterUpdateState.first_call_time = internal global i64 0, align 8
@.str.148 = private unnamed_addr constant [26 x i8] c"Cluster state changed: %s\00", align 1
@.str.149 = private unnamed_addr constant [3 x i8] c"ok\00", align 1

; Function Attrs: nounwind uwtable
define dso_local i32 @clusterNodeIsMaster(ptr noundef %0) #0 {
  %2 = alloca ptr, align 8
  store ptr %0, ptr %2, align 8, !tbaa !5
  %3 = load ptr, ptr %2, align 8, !tbaa !5
  %4 = getelementptr inbounds nuw %struct._clusterNode, ptr %3, i32 0, i32 3
  %5 = load i32, ptr %4, align 8, !tbaa !86
  %6 = and i32 %5, 1
  ret i32 %6
}

; Function Attrs: nounwind uwtable
define dso_local void @clusterUpdateState() #0 {
  %1 = alloca i32, align 4
  %2 = alloca i32, align 4
  %3 = alloca i32, align 4
  %4 = alloca i32, align 4
  %5 = alloca ptr, align 8
  %6 = alloca ptr, align 8
  %7 = alloca ptr, align 8
  %8 = alloca i32, align 4
  %9 = alloca i64, align 8
  call void @llvm.lifetime.start.p0(i64 4, ptr %1) #16
  call void @llvm.lifetime.start.p0(i64 4, ptr %2) #16
  call void @llvm.lifetime.start.p0(i64 4, ptr %3) #16
  store i32 0, ptr %3, align 4, !tbaa !46
  %10 = load ptr, ptr getelementptr inbounds nuw (%struct.redisServer, ptr @server, i32 0, i32 385), align 8, !tbaa !57
  %11 = getelementptr inbounds nuw %struct.clusterState, ptr %10, i32 0, i32 22
  %12 = load i32, ptr %11, align 8, !tbaa !116
  %13 = and i32 %12, -3
  store i32 %13, ptr %11, align 8, !tbaa !116
  %14 = load i64, ptr @clusterUpdateState.first_call_time, align 8, !tbaa !142
  %15 = icmp eq i64 %14, 0
  br i1 %15, label %16, label %18

16:                                               ; preds = %0
  %17 = call i64 @mstime()
  store i64 %17, ptr @clusterUpdateState.first_call_time, align 8, !tbaa !142
  br label %18

18:                                               ; preds = %16, %0
  %19 = load ptr, ptr @myself, align 8, !tbaa !5
  %20 = call i32 @clusterNodeIsMaster(ptr noundef %19)
  %21 = icmp ne i32 %20, 0
  br i1 %21, label %22, label %33

22:                                               ; preds = %18
  %23 = load ptr, ptr getelementptr inbounds nuw (%struct.redisServer, ptr @server, i32 0, i32 385), align 8, !tbaa !57
  %24 = getelementptr inbounds nuw %struct.clusterState, ptr %23, i32 0, i32 2
  %25 = load i32, ptr %24, align 8, !tbaa !134
  %26 = icmp eq i32 %25, 1
  br i1 %26, label %27, label %33

27:                                               ; preds = %22
  %28 = call i64 @mstime()
  %29 = load i64, ptr @clusterUpdateState.first_call_time, align 8, !tbaa !142
  %30 = sub nsw i64 %28, %29
  %31 = icmp slt i64 %30, 2000
  br i1 %31, label %32, label %33

32:                                               ; preds = %27
  store i32 1, ptr %4, align 4
  br label %168

33:                                               ; preds = %27, %22, %18
  store i32 0, ptr %2, align 4, !tbaa !46
  %34 = load i32, ptr getelementptr inbounds nuw (%struct.redisServer, ptr @server, i32 0, i32 389), align 4, !tbaa !297
  %35 = icmp ne i32 %34, 0
  br i1 %35, label %36, label %65

36:                                               ; preds = %33
  store i32 0, ptr %1, align 4, !tbaa !46
  br label %37

37:                                               ; preds = %61, %36
  %38 = load i32, ptr %1, align 4, !tbaa !46
  %39 = icmp slt i32 %38, 16384
  br i1 %39, label %40, label %64

40:                                               ; preds = %37
  %41 = load ptr, ptr getelementptr inbounds nuw (%struct.redisServer, ptr @server, i32 0, i32 385), align 8, !tbaa !57
  %42 = getelementptr inbounds nuw %struct.clusterState, ptr %41, i32 0, i32 9
  %43 = load i32, ptr %1, align 4, !tbaa !46
  %44 = sext i32 %43 to i64
  %45 = getelementptr inbounds [16384 x ptr], ptr %42, i64 0, i64 %44
  %46 = load ptr, ptr %45, align 8, !tbaa !5
  %47 = icmp eq ptr %46, null
  br i1 %47, label %59, label %48

48:                                               ; preds = %40
  %49 = load ptr, ptr getelementptr inbounds nuw (%struct.redisServer, ptr @server, i32 0, i32 385), align 8, !tbaa !57
  %50 = getelementptr inbounds nuw %struct.clusterState, ptr %49, i32 0, i32 9
  %51 = load i32, ptr %1, align 4, !tbaa !46
  %52 = sext i32 %51 to i64
  %53 = getelementptr inbounds [16384 x ptr], ptr %50, i64 0, i64 %52
  %54 = load ptr, ptr %53, align 8, !tbaa !5
  %55 = getelementptr inbounds nuw %struct._clusterNode, ptr %54, i32 0, i32 3
  %56 = load i32, ptr %55, align 8, !tbaa !86
  %57 = and i32 %56, 8
  %58 = icmp ne i32 %57, 0
  br i1 %58, label %59, label %60

59:                                               ; preds = %48, %40
  store i32 1, ptr %2, align 4, !tbaa !46
  br label %64

60:                                               ; preds = %48
  br label %61

61:                                               ; preds = %60
  %62 = load i32, ptr %1, align 4, !tbaa !46
  %63 = add nsw i32 %62, 1
  store i32 %63, ptr %1, align 4, !tbaa !46
  br label %37, !llvm.loop !298

64:                                               ; preds = %59, %37
  br label %65

65:                                               ; preds = %64, %33
  call void @llvm.lifetime.start.p0(i64 8, ptr %5) #16
  call void @llvm.lifetime.start.p0(i64 8, ptr %6) #16
  %66 = load ptr, ptr getelementptr inbounds nuw (%struct.redisServer, ptr @server, i32 0, i32 385), align 8, !tbaa !57
  %67 = getelementptr inbounds nuw %struct.clusterState, ptr %66, i32 0, i32 3
  store i32 0, ptr %67, align 4, !tbaa !135
  %68 = load ptr, ptr getelementptr inbounds nuw (%struct.redisServer, ptr @server, i32 0, i32 385), align 8, !tbaa !57
  %69 = getelementptr inbounds nuw %struct.clusterState, ptr %68, i32 0, i32 4
  %70 = load ptr, ptr %69, align 8, !tbaa !95
  %71 = call ptr @dictGetSafeIterator(ptr noundef %70)
  store ptr %71, ptr %5, align 8, !tbaa !113
  br label %72

72:                                               ; preds = %101, %65
  %73 = load ptr, ptr %5, align 8, !tbaa !113
  %74 = call ptr @dictNext(ptr noundef %73)
  store ptr %74, ptr %6, align 8, !tbaa !60
  %75 = icmp ne ptr %74, null
  br i1 %75, label %76, label %102

76:                                               ; preds = %72
  call void @llvm.lifetime.start.p0(i64 8, ptr %7) #16
  %77 = load ptr, ptr %6, align 8, !tbaa !60
  %78 = call ptr @dictGetVal(ptr noundef %77)
  store ptr %78, ptr %7, align 8, !tbaa !5
  %79 = load ptr, ptr %7, align 8, !tbaa !5
  %80 = call i32 @clusterNodeIsMaster(ptr noundef %79)
  %81 = icmp ne i32 %80, 0
  br i1 %81, label %82, label %101

82:                                               ; preds = %76
  %83 = load ptr, ptr %7, align 8, !tbaa !5
  %84 = getelementptr inbounds nuw %struct._clusterNode, ptr %83, i32 0, i32 8
  %85 = load i32, ptr %84, align 4, !tbaa !99
  %86 = icmp ne i32 %85, 0
  br i1 %86, label %87, label %101

87:                                               ; preds = %82
  %88 = load ptr, ptr getelementptr inbounds nuw (%struct.redisServer, ptr @server, i32 0, i32 385), align 8, !tbaa !57
  %89 = getelementptr inbounds nuw %struct.clusterState, ptr %88, i32 0, i32 3
  %90 = load i32, ptr %89, align 4, !tbaa !135
  %91 = add nsw i32 %90, 1
  store i32 %91, ptr %89, align 4, !tbaa !135
  %92 = load ptr, ptr %7, align 8, !tbaa !5
  %93 = getelementptr inbounds nuw %struct._clusterNode, ptr %92, i32 0, i32 3
  %94 = load i32, ptr %93, align 8, !tbaa !86
  %95 = and i32 %94, 12
  %96 = icmp eq i32 %95, 0
  br i1 %96, label %97, label %100

97:                                               ; preds = %87
  %98 = load i32, ptr %3, align 4, !tbaa !46
  %99 = add nsw i32 %98, 1
  store i32 %99, ptr %3, align 4, !tbaa !46
  br label %100

100:                                              ; preds = %97, %87
  br label %101

101:                                              ; preds = %100, %82, %76
  call void @llvm.lifetime.end.p0(i64 8, ptr %7) #16
  br label %72, !llvm.loop !299

102:                                              ; preds = %72
  %103 = load ptr, ptr %5, align 8, !tbaa !113
  call void @dictReleaseIterator(ptr noundef %103)
  call void @llvm.lifetime.end.p0(i64 8, ptr %6) #16
  call void @llvm.lifetime.end.p0(i64 8, ptr %5) #16
  call void @llvm.lifetime.start.p0(i64 4, ptr %8) #16
  %104 = load ptr, ptr getelementptr inbounds nuw (%struct.redisServer, ptr @server, i32 0, i32 385), align 8, !tbaa !57
  %105 = getelementptr inbounds nuw %struct.clusterState, ptr %104, i32 0, i32 3
  %106 = load i32, ptr %105, align 4, !tbaa !135
  %107 = sdiv i32 %106, 2
  %108 = add nsw i32 %107, 1
  store i32 %108, ptr %8, align 4, !tbaa !46
  %109 = load i32, ptr %3, align 4, !tbaa !46
  %110 = load i32, ptr %8, align 4, !tbaa !46
  %111 = icmp slt i32 %109, %110
  br i1 %111, label %112, label %114

112:                                              ; preds = %102
  store i32 1, ptr %2, align 4, !tbaa !46
  %113 = call i64 @mstime()
  store i64 %113, ptr @clusterUpdateState.among_minority_time, align 8, !tbaa !142
  br label %114

114:                                              ; preds = %112, %102
  call void @llvm.lifetime.end.p0(i64 4, ptr %8) #16
  %115 = load i32, ptr %2, align 4, !tbaa !46
  %116 = load ptr, ptr getelementptr inbounds nuw (%struct.redisServer, ptr @server, i32 0, i32 385), align 8, !tbaa !57
  %117 = getelementptr inbounds nuw %struct.clusterState, ptr %116, i32 0, i32 2
  %118 = load i32, ptr %117, align 8, !tbaa !134
  %119 = icmp ne i32 %115, %118
  br i1 %119, label %120, label %167

120:                                              ; preds = %114
  call void @llvm.lifetime.start.p0(i64 8, ptr %9) #16
  %121 = load i64, ptr getelementptr inbounds nuw (%struct.redisServer, ptr @server, i32 0, i32 382), align 8, !tbaa !166
  store i64 %121, ptr %9, align 8, !tbaa !142
  %122 = load i64, ptr %9, align 8, !tbaa !142
  %123 = icmp sgt i64 %122, 5000
  br i1 %123, label %124, label %125

124:                                              ; preds = %120
  store i64 5000, ptr %9, align 8, !tbaa !142
  br label %125

125:                                              ; preds = %124, %120
  %126 = load i64, ptr %9, align 8, !tbaa !142
  %127 = icmp slt i64 %126, 500
  br i1 %127, label %128, label %129

128:                                              ; preds = %125
  store i64 500, ptr %9, align 8, !tbaa !142
  br label %129

129:                                              ; preds = %128, %125
  %130 = load i32, ptr %2, align 4, !tbaa !46
  %131 = icmp eq i32 %130, 0
  br i1 %131, label %132, label %143

132:                                              ; preds = %129
  %133 = load ptr, ptr @myself, align 8, !tbaa !5
  %134 = call i32 @clusterNodeIsMaster(ptr noundef %133)
  %135 = icmp ne i32 %134, 0
  br i1 %135, label %136, label %143

136:                                              ; preds = %132
  %137 = call i64 @mstime()
  %138 = load i64, ptr @clusterUpdateState.among_minority_time, align 8, !tbaa !142
  %139 = sub nsw i64 %137, %138
  %140 = load i64, ptr %9, align 8, !tbaa !142
  %141 = icmp slt i64 %139, %140
  br i1 %141, label %142, label %143

142:                                              ; preds = %136
  store i32 1, ptr %4, align 4
  br label %164

143:                                              ; preds = %136, %132, %129
  br label %144

144:                                              ; preds = %143
  %145 = load i32, ptr %2, align 4, !tbaa !46
  %146 = icmp eq i32 %145, 0
  %147 = select i1 %146, i32 2, i32 3
  %148 = and i32 %147, 255
  %149 = load i32, ptr getelementptr inbounds nuw (%struct.redisServer, ptr @server, i32 0, i32 159), align 8, !tbaa !68
  %150 = icmp slt i32 %148, %149
  br i1 %150, label %151, label %152

151:                                              ; preds = %144
  br label %160

152:                                              ; preds = %144
  %153 = load i32, ptr %2, align 4, !tbaa !46
  %154 = icmp eq i32 %153, 0
  %155 = select i1 %154, i32 2, i32 3
  %156 = load i32, ptr %2, align 4, !tbaa !46
  %157 = icmp eq i32 %156, 0
  %158 = select i1 %157, ptr @.str.149, ptr @.str.22
  call void (i32, ptr, ...) @_serverLog(i32 noundef %155, ptr noundef @.str.148, ptr noundef %158)
  br label %159

159:                                              ; preds = %152
  br label %160

160:                                              ; preds = %159, %151
  %161 = load i32, ptr %2, align 4, !tbaa !46
  %162 = load ptr, ptr getelementptr inbounds nuw (%struct.redisServer, ptr @server, i32 0, i32 385), align 8, !tbaa !57
  %163 = getelementptr inbounds nuw %struct.clusterState, ptr %162, i32 0, i32 2
  store i32 %161, ptr %163, align 8, !tbaa !134
  store i32 0, ptr %4, align 4
  br label %164

164:                                              ; preds = %160, %142
  call void @llvm.lifetime.end.p0(i64 8, ptr %9) #16
  %165 = load i32, ptr %4, align 4
  switch i32 %165, label %168 [
    i32 0, label %166
  ]

166:                                              ; preds = %164
  br label %167

167:                                              ; preds = %166, %114
  store i32 0, ptr %4, align 4
  br label %168

168:                                              ; preds = %167, %164, %32
  call void @llvm.lifetime.end.p0(i64 4, ptr %3) #16
  call void @llvm.lifetime.end.p0(i64 4, ptr %2) #16
  call void @llvm.lifetime.end.p0(i64 4, ptr %1) #16
  %169 = load i32, ptr %4, align 4
  switch i32 %169, label %171 [
    i32 0, label %170
    i32 1, label %170
  ]

170:                                              ; preds = %168, %168
  ret void

171:                                              ; preds = %168
  unreachable
}