; Function Attrs: nounwind uwtable
define dso_local void @clusterUpdateState() local_unnamed_addr #3 {
  %1 = load ptr, ptr getelementptr inbounds nuw (i8, ptr @server, i64 7920), align 8, !tbaa !56
  %2 = getelementptr inbounds nuw i8, ptr %1, i64 393384
  %3 = load i32, ptr %2, align 8, !tbaa !57
  %4 = and i32 %3, -3
  store i32 %4, ptr %2, align 8, !tbaa !57
  %5 = load i64, ptr @clusterUpdateState.first_call_time, align 8, !tbaa !229
  %6 = icmp eq i64 %5, 0
  br i1 %6, label %7, label %9

7:                                                ; preds = %0
  %8 = tail call i64 @mstime() #33
  store i64 %8, ptr @clusterUpdateState.first_call_time, align 8, !tbaa !229
  %.pre.pre44.pre = load ptr, ptr getelementptr inbounds nuw (i8, ptr @server, i64 7920), align 8, !tbaa !56
  br label %9

9:                                                ; preds = %7, %0
  %.pre.pre44 = phi ptr [ %.pre.pre44.pre, %7 ], [ %1, %0 ]
  %10 = load ptr, ptr @myself, align 8, !tbaa !46
  %11 = getelementptr inbounds nuw i8, ptr %10, i64 88
  %12 = load i32, ptr %11, align 8, !tbaa !82
  %13 = and i32 %12, 1
  %.not = icmp eq i32 %13, 0
  br i1 %.not, label %23, label %14

14:                                               ; preds = %9
  %15 = getelementptr inbounds nuw i8, ptr %.pre.pre44, i64 16
  %16 = load i32, ptr %15, align 8, !tbaa !113
  %17 = icmp eq i32 %16, 1
  br i1 %17, label %18, label %23

18:                                               ; preds = %14
  %19 = tail call i64 @mstime() #33
  %20 = load i64, ptr @clusterUpdateState.first_call_time, align 8, !tbaa !229
  %21 = sub nsw i64 %19, %20
  %22 = icmp slt i64 %21, 2000
  br i1 %22, label %89, label %._crit_edge43

._crit_edge43:                                    ; preds = %18
  %.pre.pre = load ptr, ptr getelementptr inbounds nuw (i8, ptr @server, i64 7920), align 8, !tbaa !56
  br label %23

23:                                               ; preds = %._crit_edge43, %14, %9
  %.pre = phi ptr [ %.pre.pre, %._crit_edge43 ], [ %.pre.pre44, %14 ], [ %.pre.pre44, %9 ]
  %24 = load i32, ptr getelementptr inbounds nuw (i8, ptr @server, i64 7940), align 4, !tbaa !272
  %.not30 = icmp eq i32 %24, 0
  br i1 %.not30, label %.loopexit, label %.preheader

.preheader:                                       ; preds = %23
  %25 = getelementptr inbounds nuw i8, ptr %.pre, i64 262192
  br label %27

26:                                               ; preds = %31
  %indvars.iv.next = add nuw nsw i64 %indvars.iv, 1
  %exitcond.not = icmp eq i64 %indvars.iv.next, 16384
  br i1 %exitcond.not, label %.loopexit, label %27, !llvm.loop !273

27:                                               ; preds = %.preheader, %26
  %indvars.iv = phi i64 [ 0, %.preheader ], [ %indvars.iv.next, %26 ]
  %28 = getelementptr inbounds nuw [16384 x ptr], ptr %25, i64 0, i64 %indvars.iv
  %29 = load ptr, ptr %28, align 8, !tbaa !46
  %30 = icmp eq ptr %29, null
  br i1 %30, label %.loopexit, label %31

31:                                               ; preds = %27
  %32 = getelementptr inbounds nuw i8, ptr %29, i64 88
  %33 = load i32, ptr %32, align 8, !tbaa !82
  %34 = and i32 %33, 8
  %.not31 = icmp eq i32 %34, 0
  br i1 %.not31, label %26, label %.loopexit

.loopexit:                                        ; preds = %27, %31, %26, %23
  %.023 = phi i32 [ 0, %23 ], [ 1, %27 ], [ 1, %31 ], [ 0, %26 ]
  %35 = getelementptr inbounds nuw i8, ptr %.pre, i64 20
  store i32 0, ptr %35, align 4, !tbaa !114
  %36 = getelementptr inbounds nuw i8, ptr %.pre, i64 24
  %37 = load ptr, ptr %36, align 8, !tbaa !72
  %38 = tail call ptr @dictGetSafeIterator(ptr noundef %37) #33
  %39 = tail call ptr @dictNext(ptr noundef %38) #33
  %.not3239 = icmp eq ptr %39, null
  br i1 %.not3239, label %._crit_edge, label %.lr.ph

.lr.ph:                                           ; preds = %.loopexit, %56
  %40 = phi ptr [ %57, %56 ], [ %39, %.loopexit ]
  %.02440 = phi i32 [ %.125, %56 ], [ 0, %.loopexit ]
  %41 = tail call ptr @dictGetVal(ptr noundef nonnull %40) #33
  %42 = getelementptr inbounds nuw i8, ptr %41, i64 88
  %43 = load i32, ptr %42, align 8, !tbaa !82
  %44 = and i32 %43, 1
  %.not36 = icmp eq i32 %44, 0
  br i1 %.not36, label %56, label %45

45:                                               ; preds = %.lr.ph
  %46 = getelementptr inbounds nuw i8, ptr %41, i64 2164
  %47 = load i32, ptr %46, align 4, !tbaa !149
  %.not37 = icmp eq i32 %47, 0
  br i1 %.not37, label %56, label %48

48:                                               ; preds = %45
  %49 = load ptr, ptr getelementptr inbounds nuw (i8, ptr @server, i64 7920), align 8, !tbaa !56
  %50 = getelementptr inbounds nuw i8, ptr %49, i64 20
  %51 = load i32, ptr %50, align 4, !tbaa !114
  %52 = add nsw i32 %51, 1
  store i32 %52, ptr %50, align 4, !tbaa !114
  %53 = and i32 %43, 12
  %54 = icmp eq i32 %53, 0
  %55 = zext i1 %54 to i32
  %spec.select = add nsw i32 %.02440, %55
  br label %56

56:                                               ; preds = %48, %45, %.lr.ph
  %.125 = phi i32 [ %.02440, %45 ], [ %.02440, %.lr.ph ], [ %spec.select, %48 ]
  %57 = tail call ptr @dictNext(ptr noundef %38) #33
  %.not32 = icmp eq ptr %57, null
  br i1 %.not32, label %._crit_edge, label %.lr.ph, !llvm.loop !274

._crit_edge:                                      ; preds = %56, %.loopexit
  %.024.lcssa = phi i32 [ 0, %.loopexit ], [ %.125, %56 ]
  tail call void @dictReleaseIterator(ptr noundef %38) #33
  %58 = load ptr, ptr getelementptr inbounds nuw (i8, ptr @server, i64 7920), align 8, !tbaa !56
  %59 = getelementptr inbounds nuw i8, ptr %58, i64 20
  %60 = load i32, ptr %59, align 4, !tbaa !114
  %61 = sdiv i32 %60, 2
  %.not33 = icmp sgt i32 %.024.lcssa, %61
  br i1 %.not33, label %64, label %62

62:                                               ; preds = %._crit_edge
  %63 = tail call i64 @mstime() #33
  store i64 %63, ptr @clusterUpdateState.among_minority_time, align 8, !tbaa !229
  %.pre42 = load ptr, ptr getelementptr inbounds nuw (i8, ptr @server, i64 7920), align 8, !tbaa !56
  br label %64

64:                                               ; preds = %62, %._crit_edge
  %65 = phi ptr [ %.pre42, %62 ], [ %58, %._crit_edge ]
  %.1 = phi i32 [ 1, %62 ], [ %.023, %._crit_edge ]
  %66 = getelementptr inbounds nuw i8, ptr %65, i64 16
  %67 = load i32, ptr %66, align 8, !tbaa !113
  %.not34 = icmp eq i32 %.1, %67
  br i1 %.not34, label %89, label %68

68:                                               ; preds = %64
  %69 = load i64, ptr getelementptr inbounds nuw (i8, ptr @server, i64 7896), align 8, !tbaa !142
  %spec.store.select = tail call i64 @llvm.smin.i64(i64 %69, i64 5000)
  %spec.store.select1 = tail call i64 @llvm.smax.i64(i64 %spec.store.select, i64 500)
  %70 = icmp eq i32 %.1, 0
  br i1 %70, label %71, label %81

71:                                               ; preds = %68
  %72 = load ptr, ptr @myself, align 8, !tbaa !46
  %73 = getelementptr inbounds nuw i8, ptr %72, i64 88
  %74 = load i32, ptr %73, align 8, !tbaa !82
  %75 = and i32 %74, 1
  %.not35 = icmp eq i32 %75, 0
  br i1 %.not35, label %81, label %76

76:                                               ; preds = %71
  %77 = tail call i64 @mstime() #33
  %78 = load i64, ptr @clusterUpdateState.among_minority_time, align 8, !tbaa !229
  %79 = sub nsw i64 %77, %78
  %80 = icmp slt i64 %79, %spec.store.select1
  br i1 %80, label %89, label %81

81:                                               ; preds = %68, %71, %76
  %82 = phi i32 [ 3, %68 ], [ 2, %71 ], [ 2, %76 ]
  %83 = load i32, ptr getelementptr inbounds nuw (i8, ptr @server, i64 6288), align 8, !tbaa !63
  %84 = icmp slt i32 %82, %83
  br i1 %84, label %.critedge, label %85

85:                                               ; preds = %81
  %86 = select i1 %70, ptr @.str.149, ptr @.str.22
  tail call void (i32, ptr, ...) @_serverLog(i32 noundef %82, ptr noundef nonnull @.str.148, ptr noundef nonnull %86) #33
  br label %.critedge

.critedge:                                        ; preds = %81, %85
  %87 = load ptr, ptr getelementptr inbounds nuw (i8, ptr @server, i64 7920), align 8, !tbaa !56
  %88 = getelementptr inbounds nuw i8, ptr %87, i64 16
  store i32 %.1, ptr %88, align 8, !tbaa !113
  br label %89

89:                                               ; preds = %64, %.critedge, %76, %18
  ret void
}